(lp1
ccopy_reg
_reconstructor
p2
(cprimes_partitioned
PrimeSegmentMetadatum
p3
c__builtin__
object
p4
NtRp5
(dp6
S'index'
p7
I0
sS'max'
p8
I15485863
sS'length'
p9
I1000000
sS'min'
p10
I0
sbag2
(g3
g4
NtRp11
(dp12
g7
I1000000
sg8
I32452843
sg9
I1000000
sg10
I15485864
sbag2
(g3
g4
NtRp13
(dp14
g7
I2000000
sg8
I49979687
sg9
I1000000
sg10
I32452844
sbag2
(g3
g4
NtRp15
(dp16
g7
I3000000
sg8
I67867967
sg9
I1000000
sg10
I49979688
sbag2
(g3
g4
NtRp17
(dp18
g7
I4000000
sg8
I86028121
sg9
I1000000
sg10
I67867968
sbag2
(g3
g4
NtRp19
(dp20
g7
I5000000
sg8
I104395301
sg9
I1000000
sg10
I86028122
sbag2
(g3
g4
NtRp21
(dp22
g7
I6000000
sg8
I122949823
sg9
I1000000
sg10
I104395302
sbag2
(g3
g4
NtRp23
(dp24
g7
I7000000
sg8
I141650939
sg9
I1000000
sg10
I122949824
sbag2
(g3
g4
NtRp25
(dp26
g7
I8000000
sg8
I160481183
sg9
I1000000
sg10
I141650940
sbag2
(g3
g4
NtRp27
(dp28
g7
I9000000
sg8
I179424673
sg9
I1000000
sg10
I160481184
sbag2
(g3
g4
NtRp29
(dp30
g7
I10000000
sg8
I198491317
sg9
I1000000
sg10
I179424674
sbag2
(g3
g4
NtRp31
(dp32
g7
I11000000
sg8
I217645177
sg9
I1000000
sg10
I198491318
sbag2
(g3
g4
NtRp33
(dp34
g7
I12000000
sg8
I236887691
sg9
I1000000
sg10
I217645178
sbag2
(g3
g4
NtRp35
(dp36
g7
I13000000
sg8
I256203161
sg9
I1000000
sg10
I236887692
sbag2
(g3
g4
NtRp37
(dp38
g7
I14000000
sg8
I275604541
sg9
I1000000
sg10
I256203162
sbag2
(g3
g4
NtRp39
(dp40
g7
I15000000
sg8
I295075147
sg9
I1000000
sg10
I275604542
sbag2
(g3
g4
NtRp41
(dp42
g7
I16000000
sg8
I314606869
sg9
I1000000
sg10
I295075148
sbag2
(g3
g4
NtRp43
(dp44
g7
I17000000
sg8
I334214459
sg9
I1000000
sg10
I314606870
sbag2
(g3
g4
NtRp45
(dp46
g7
I18000000
sg8
I353868013
sg9
I1000000
sg10
I334214460
sbag2
(g3
g4
NtRp47
(dp48
g7
I19000000
sg8
I373587883
sg9
I1000000
sg10
I353868014
sbag2
(g3
g4
NtRp49
(dp50
g7
I20000000
sg8
I393342739
sg9
I1000000
sg10
I373587884
sbag2
(g3
g4
NtRp51
(dp52
g7
I21000000
sg8
I413158511
sg9
I1000000
sg10
I393342740
sbag2
(g3
g4
NtRp53
(dp54
g7
I22000000
sg8
I433024223
sg9
I1000000
sg10
I413158512
sbag2
(g3
g4
NtRp55
(dp56
g7
I23000000
sg8
I452930459
sg9
I1000000
sg10
I433024224
sbag2
(g3
g4
NtRp57
(dp58
g7
I24000000
sg8
I472882027
sg9
I1000000
sg10
I452930460
sbag2
(g3
g4
NtRp59
(dp60
g7
I25000000
sg8
I492876847
sg9
I1000000
sg10
I472882028
sbag2
(g3
g4
NtRp61
(dp62
g7
I26000000
sg8
I512927357
sg9
I1000000
sg10
I492876848
sbag2
(g3
g4
NtRp63
(dp64
g7
I27000000
sg8
I533000389
sg9
I1000000
sg10
I512927358
sbag2
(g3
g4
NtRp65
(dp66
g7
I28000000
sg8
I553105243
sg9
I1000000
sg10
I533000390
sbag2
(g3
g4
NtRp67
(dp68
g7
I29000000
sg8
I573259391
sg9
I1000000
sg10
I553105244
sbag2
(g3
g4
NtRp69
(dp70
g7
I30000000
sg8
I593441843
sg9
I1000000
sg10
I573259392
sbag2
(g3
g4
NtRp71
(dp72
g7
I31000000
sg8
I613651349
sg9
I1000000
sg10
I593441844
sbag2
(g3
g4
NtRp73
(dp74
g7
I32000000
sg8
I633910099
sg9
I1000000
sg10
I613651350
sbag2
(g3
g4
NtRp75
(dp76
g7
I33000000
sg8
I654188383
sg9
I1000000
sg10
I633910100
sbag2
(g3
g4
NtRp77
(dp78
g7
I34000000
sg8
I674506081
sg9
I1000000
sg10
I654188384
sbag2
(g3
g4
NtRp79
(dp80
g7
I35000000
sg8
I694847533
sg9
I1000000
sg10
I674506082
sbag2
(g3
g4
NtRp81
(dp82
g7
I36000000
sg8
I715225739
sg9
I1000000
sg10
I694847534
sbag2
(g3
g4
NtRp83
(dp84
g7
I37000000
sg8
I735632791
sg9
I1000000
sg10
I715225740
sbag2
(g3
g4
NtRp85
(dp86
g7
I38000000
sg8
I756065159
sg9
I1000000
sg10
I735632792
sbag2
(g3
g4
NtRp87
(dp88
g7
I39000000
sg8
I776531401
sg9
I1000000
sg10
I756065160
sbag2
(g3
g4
NtRp89
(dp90
g7
I40000000
sg8
I797003413
sg9
I1000000
sg10
I776531402
sbag2
(g3
g4
NtRp91
(dp92
g7
I41000000
sg8
I817504243
sg9
I1000000
sg10
I797003414
sbag2
(g3
g4
NtRp93
(dp94
g7
I42000000
sg8
I838041641
sg9
I1000000
sg10
I817504244
sbag2
(g3
g4
NtRp95
(dp96
g7
I43000000
sg8
I858599503
sg9
I1000000
sg10
I838041642
sbag2
(g3
g4
NtRp97
(dp98
g7
I44000000
sg8
I879190747
sg9
I1000000
sg10
I858599504
sbag2
(g3
g4
NtRp99
(dp100
g7
I45000000
sg8
I899809343
sg9
I1000000
sg10
I879190748
sbag2
(g3
g4
NtRp101
(dp102
g7
I46000000
sg8
I920419813
sg9
I1000000
sg10
I899809344
sbag2
(g3
g4
NtRp103
(dp104
g7
I47000000
sg8
I941083981
sg9
I1000000
sg10
I920419814
sbag2
(g3
g4
NtRp105
(dp106
g7
I48000000
sg8
I961748927
sg9
I1000000
sg10
I941083982
sbag2
(g3
g4
NtRp107
(dp108
g7
I49000000
sg8
I982451653
sg9
I1000000
sg10
I961748928
sbag2
(g3
g4
NtRp109
(dp110
g7
I50000000
sg8
I999999937
sg9
I847534
sg10
I982451654
sba.